target datalayout = "e-m:e-p270:32:32-p271:32:32-p272:64:64-i64:64-i128:128-f80:128-n8:16:32:64-S128"
target triple = "x86_64-pc-linux-gnu"

%struct.JNINativeInterface_ = type { ptr, ptr, ptr, ptr, ptr, ptr, ptr, ptr, ptr, ptr, ptr, ptr, ptr, ptr, ptr, ptr, ptr, ptr, ptr, ptr, ptr, ptr, ptr, ptr, ptr, ptr, ptr, ptr, ptr, ptr, ptr, ptr, ptr, ptr, ptr, ptr, ptr, ptr, ptr, ptr, ptr, ptr, ptr, ptr, ptr, ptr, ptr, ptr, ptr, ptr, ptr, ptr, ptr, ptr, ptr, ptr, ptr, ptr, ptr, ptr, ptr, ptr, ptr, ptr, ptr, ptr, ptr, ptr, ptr, ptr, ptr, ptr, ptr, ptr, ptr, ptr, ptr, ptr, ptr, ptr, ptr, ptr, ptr, ptr, ptr, ptr, ptr, ptr, ptr, ptr, ptr, ptr, ptr, ptr, ptr, ptr, ptr, ptr, ptr, ptr, ptr, ptr, ptr, ptr, ptr, ptr, ptr, ptr, ptr, ptr, ptr, ptr, ptr, ptr, ptr, ptr, ptr, ptr, ptr, ptr, ptr, ptr, ptr, ptr, ptr, ptr, ptr, ptr, ptr, ptr, ptr, ptr, ptr, ptr, ptr, ptr, ptr, ptr, ptr, ptr, ptr, ptr, ptr, ptr, ptr, ptr, ptr, ptr, ptr, ptr, ptr, ptr, ptr, ptr, ptr, ptr, ptr, ptr, ptr, ptr, ptr, ptr, ptr, ptr, ptr, ptr, ptr, ptr, ptr, ptr, ptr, ptr, ptr, ptr, ptr, ptr, ptr, ptr, ptr, ptr, ptr, ptr, ptr, ptr, ptr, ptr, ptr, ptr, ptr, ptr, ptr, ptr, ptr, ptr, ptr, ptr, ptr, ptr, ptr, ptr, ptr, ptr, ptr, ptr, ptr, ptr, ptr, ptr, ptr, ptr, ptr, ptr, ptr, ptr, ptr, ptr, ptr, ptr, ptr, ptr, ptr, ptr, ptr, ptr, ptr, ptr, ptr, ptr, ptr, ptr, ptr, ptr, ptr, ptr, ptr }
%struct.GSS_FUNCTION_TABLE = type { ptr, ptr, ptr, ptr, ptr, ptr, ptr, ptr, ptr, ptr, ptr, ptr, ptr, ptr, ptr, ptr, ptr, ptr, ptr, ptr, ptr, ptr, ptr, ptr, ptr, ptr, ptr, ptr, ptr }
%struct.gss_buffer_desc_struct = type { i64, ptr }

@JGSS_DEBUG = external global i32, align 4
@stderr = external global ptr, align 8
@ftab = external global ptr, align 8
@.str.18 = private unnamed_addr constant [46 x i8] c"[GSSLibStub:%d] [GSSLibStub_displayName] %ld\0A\00", align 1
@.str.19 = private unnamed_addr constant [25 x i8] c"[GSSLibStub_displayName]\00", align 1
@CLS_Object = external global ptr, align 8

; Function Attrs: nounwind uwtable
define ptr @Java_sun_security_jgss_wrapper_GSSLibStub_displayName(ptr noundef %0, ptr noundef %1, i64 noundef %2) #0 {
  %4 = alloca ptr, align 8
  %5 = alloca ptr, align 8
  %6 = alloca ptr, align 8
  %7 = alloca i64, align 8
  %8 = alloca i32, align 4
  %9 = alloca i32, align 4
  %10 = alloca ptr, align 8
  %11 = alloca %struct.gss_buffer_desc_struct, align 8
  %12 = alloca ptr, align 8
  %13 = alloca ptr, align 8
  %14 = alloca ptr, align 8
  %15 = alloca ptr, align 8
  store ptr %0, ptr %5, align 8
  store ptr %1, ptr %6, align 8
  store i64 %2, ptr %7, align 8
  %16 = load i64, ptr %7, align 8
  %17 = inttoptr i64 %16 to ptr
  store ptr %17, ptr %10, align 8
  %18 = load i32, ptr @JGSS_DEBUG, align 4
  %19 = icmp ne i32 %18, 0
  br i1 %19, label %20, label %26

20:                                               ; preds = %3
  %21 = load ptr, ptr @stderr, align 8
  %22 = load i64, ptr %7, align 8
  %23 = call i32 (ptr, ptr, ...) @fprintf(ptr noundef %21, ptr noundef @.str.18, i32 noundef 568, i64 noundef %22) #5
  %24 = load ptr, ptr @stderr, align 8
  %25 = call i32 @fflush(ptr noundef %24)
  br label %26

26:                                               ; preds = %20, %3
  %27 = load ptr, ptr %10, align 8
  %28 = icmp eq ptr %27, null
  br i1 %28, label %29, label %32

29:                                               ; preds = %26
  %30 = load ptr, ptr %5, align 8
  %31 = load ptr, ptr %6, align 8
  call void @checkStatus(ptr noundef %30, ptr noundef %31, i32 noundef 131072, i32 noundef 0, ptr noundef @.str.19)
  store ptr null, ptr %4, align 8
  br label %123

32:                                               ; preds = %26
  %33 = load ptr, ptr @ftab, align 8
  %34 = getelementptr inbounds %struct.GSS_FUNCTION_TABLE, ptr %33, i32 0, i32 6
  %35 = load ptr, ptr %34, align 8
  %36 = load ptr, ptr %10, align 8
  %37 = call i32 %35(ptr noundef %8, ptr noundef %36, ptr noundef %11, ptr noundef %12)
  store i32 %37, ptr %9, align 4
  %38 = load ptr, ptr %5, align 8
  %39 = call ptr @getJavaString(ptr noundef %38, ptr noundef %11)
  store ptr %39, ptr %13, align 8
  %40 = load ptr, ptr %5, align 8
  %41 = load ptr, ptr %40, align 8
  %42 = getelementptr inbounds %struct.JNINativeInterface_, ptr %41, i32 0, i32 228
  %43 = load ptr, ptr %42, align 8
  %44 = load ptr, ptr %5, align 8
  %45 = call zeroext i8 %43(ptr noundef %44)
  %46 = icmp ne i8 %45, 0
  br i1 %46, label %47, label %48

47:                                               ; preds = %32
  store ptr null, ptr %4, align 8
  br label %123

48:                                               ; preds = %32
  %49 = load ptr, ptr %5, align 8
  %50 = load ptr, ptr %6, align 8
  %51 = load i32, ptr %9, align 4
  %52 = load i32, ptr %8, align 4
  call void @checkStatus(ptr noundef %49, ptr noundef %50, i32 noundef %51, i32 noundef %52, ptr noundef @.str.19)
  %53 = load ptr, ptr %5, align 8
  %54 = load ptr, ptr %53, align 8
  %55 = getelementptr inbounds %struct.JNINativeInterface_, ptr %54, i32 0, i32 228
  %56 = load ptr, ptr %55, align 8
  %57 = load ptr, ptr %5, align 8
  %58 = call zeroext i8 %56(ptr noundef %57)
  %59 = icmp ne i8 %58, 0
  br i1 %59, label %60, label %61

60:                                               ; preds = %48
  store ptr null, ptr %4, align 8
  br label %123

61:                                               ; preds = %48
  %62 = load ptr, ptr %5, align 8
  %63 = load ptr, ptr %12, align 8
  %64 = call ptr @getJavaOID(ptr noundef %62, ptr noundef %63)
  store ptr %64, ptr %14, align 8
  %65 = load ptr, ptr %5, align 8
  %66 = load ptr, ptr %65, align 8
  %67 = getelementptr inbounds %struct.JNINativeInterface_, ptr %66, i32 0, i32 228
  %68 = load ptr, ptr %67, align 8
  %69 = load ptr, ptr %5, align 8
  %70 = call zeroext i8 %68(ptr noundef %69)
  %71 = icmp ne i8 %70, 0
  br i1 %71, label %72, label %73

72:                                               ; preds = %61
  store ptr null, ptr %4, align 8
  br label %123

73:                                               ; preds = %61
  %74 = load ptr, ptr %5, align 8
  %75 = load ptr, ptr %74, align 8
  %76 = getelementptr inbounds %struct.JNINativeInterface_, ptr %75, i32 0, i32 172
  %77 = load ptr, ptr %76, align 8
  %78 = load ptr, ptr %5, align 8
  %79 = load ptr, ptr @CLS_Object, align 8
  %80 = call ptr %77(ptr noundef %78, i32 noundef 2, ptr noundef %79, ptr noundef null)
  store ptr %80, ptr %15, align 8
  %81 = load ptr, ptr %5, align 8
  %82 = load ptr, ptr %81, align 8
  %83 = getelementptr inbounds %struct.JNINativeInterface_, ptr %82, i32 0, i32 228
  %84 = load ptr, ptr %83, align 8
  %85 = load ptr, ptr %5, align 8
  %86 = call zeroext i8 %84(ptr noundef %85)
  %87 = icmp ne i8 %86, 0
  br i1 %87, label %88, label %89

88:                                               ; preds = %73
  store ptr null, ptr %4, align 8
  br label %123

89:                                               ; preds = %73
  %90 = load ptr, ptr %5, align 8
  %91 = load ptr, ptr %90, align 8
  %92 = getelementptr inbounds %struct.JNINativeInterface_, ptr %91, i32 0, i32 174
  %93 = load ptr, ptr %92, align 8
  %94 = load ptr, ptr %5, align 8
  %95 = load ptr, ptr %15, align 8
  %96 = load ptr, ptr %13, align 8
  call void %93(ptr noundef %94, ptr noundef %95, i32 noundef 0, ptr noundef %96)
  %97 = load ptr, ptr %5, align 8
  %98 = load ptr, ptr %97, align 8
  %99 = getelementptr inbounds %struct.JNINativeInterface_, ptr %98, i32 0, i32 228
  %100 = load ptr, ptr %99, align 8
  %101 = load ptr, ptr %5, align 8
  %102 = call zeroext i8 %100(ptr noundef %101)
  %103 = icmp ne i8 %102, 0
  br i1 %103, label %104, label %105

104:                                              ; preds = %89
  store ptr null, ptr %4, align 8
  br label %123

105:                                              ; preds = %89
  %106 = load ptr, ptr %5, align 8
  %107 = load ptr, ptr %106, align 8
  %108 = getelementptr inbounds %struct.JNINativeInterface_, ptr %107, i32 0, i32 174
  %109 = load ptr, ptr %108, align 8
  %110 = load ptr, ptr %5, align 8
  %111 = load ptr, ptr %15, align 8
  %112 = load ptr, ptr %14, align 8
  call void %109(ptr noundef %110, ptr noundef %111, i32 noundef 1, ptr noundef %112)
  %113 = load ptr, ptr %5, align 8
  %114 = load ptr, ptr %113, align 8
  %115 = getelementptr inbounds %struct.JNINativeInterface_, ptr %114, i32 0, i32 228
  %116 = load ptr, ptr %115, align 8
  %117 = load ptr, ptr %5, align 8
  %118 = call zeroext i8 %116(ptr noundef %117)
  %119 = icmp ne i8 %118, 0
  br i1 %119, label %120, label %121

120:                                              ; preds = %105
  store ptr null, ptr %4, align 8
  br label %123

121:                                              ; preds = %105
  %122 = load ptr, ptr %15, align 8
  store ptr %122, ptr %4, align 8
  br label %123

123:                                              ; preds = %121, %120, %104, %88, %72, %60, %47, %29
  %124 = load ptr, ptr %4, align 8
  ret ptr %124
}