; Function Attrs: nounwind uwtable
define ptr @Java_sun_security_jgss_wrapper_GSSLibStub_displayName(ptr noundef %0, ptr noundef %1, i64 noundef %2) local_unnamed_addr #0 {
  %4 = alloca i32, align 4
  %5 = alloca %struct.gss_buffer_desc_struct, align 8
  %6 = alloca ptr, align 8
  %7 = inttoptr i64 %2 to ptr
  %8 = load i32, ptr @JGSS_DEBUG, align 4
  %.not = icmp eq i32 %8, 0
  br i1 %.not, label %14, label %9

9:                                                ; preds = %3
  %10 = load ptr, ptr @stderr, align 8
  %11 = tail call i32 (ptr, ptr, ...) @fprintf(ptr noundef %10, ptr noundef nonnull @.str.18, i32 noundef 568, i64 noundef %2) #8
  %12 = load ptr, ptr @stderr, align 8
  %13 = tail call i32 @fflush(ptr noundef %12)
  br label %14

14:                                               ; preds = %9, %3
  %15 = icmp eq i64 %2, 0
  br i1 %15, label %16, label %17

16:                                               ; preds = %14
  tail call void @checkStatus(ptr noundef %0, ptr noundef %1, i32 noundef 131072, i32 noundef 0, ptr noundef nonnull @.str.19) #9
  br label %66

17:                                               ; preds = %14
  %18 = load ptr, ptr @ftab, align 8
  %19 = getelementptr inbounds i8, ptr %18, i64 48
  %20 = load ptr, ptr %19, align 8
  %21 = call i32 %20(ptr noundef nonnull %4, ptr noundef nonnull %7, ptr noundef nonnull %5, ptr noundef nonnull %6) #9
  %22 = call ptr @getJavaString(ptr noundef %0, ptr noundef nonnull %5) #9
  %23 = load ptr, ptr %0, align 8
  %24 = getelementptr inbounds i8, ptr %23, i64 1824
  %25 = load ptr, ptr %24, align 8
  %26 = call zeroext i8 %25(ptr noundef nonnull %0) #9
  %.not35 = icmp eq i8 %26, 0
  br i1 %.not35, label %27, label %66

27:                                               ; preds = %17
  %28 = load i32, ptr %4, align 4
  call void @checkStatus(ptr noundef nonnull %0, ptr noundef %1, i32 noundef %21, i32 noundef %28, ptr noundef nonnull @.str.19) #9
  %29 = load ptr, ptr %0, align 8
  %30 = getelementptr inbounds i8, ptr %29, i64 1824
  %31 = load ptr, ptr %30, align 8
  %32 = call zeroext i8 %31(ptr noundef nonnull %0) #9
  %.not36 = icmp eq i8 %32, 0
  br i1 %.not36, label %33, label %66

33:                                               ; preds = %27
  %34 = load ptr, ptr %6, align 8
  %35 = call ptr @getJavaOID(ptr noundef nonnull %0, ptr noundef %34) #9
  %36 = load ptr, ptr %0, align 8
  %37 = getelementptr inbounds i8, ptr %36, i64 1824
  %38 = load ptr, ptr %37, align 8
  %39 = call zeroext i8 %38(ptr noundef nonnull %0) #9
  %.not37 = icmp eq i8 %39, 0
  br i1 %.not37, label %40, label %66

40:                                               ; preds = %33
  %41 = load ptr, ptr %0, align 8
  %42 = getelementptr inbounds i8, ptr %41, i64 1376
  %43 = load ptr, ptr %42, align 8
  %44 = load ptr, ptr @CLS_Object, align 8
  %45 = call ptr %43(ptr noundef nonnull %0, i32 noundef 2, ptr noundef %44, ptr noundef null) #9
  %46 = load ptr, ptr %0, align 8
  %47 = getelementptr inbounds i8, ptr %46, i64 1824
  %48 = load ptr, ptr %47, align 8
  %49 = call zeroext i8 %48(ptr noundef nonnull %0) #9
  %.not38 = icmp eq i8 %49, 0
  br i1 %.not38, label %50, label %66

50:                                               ; preds = %40
  %51 = load ptr, ptr %0, align 8
  %52 = getelementptr inbounds i8, ptr %51, i64 1392
  %53 = load ptr, ptr %52, align 8
  call void %53(ptr noundef nonnull %0, ptr noundef %45, i32 noundef 0, ptr noundef %22) #9
  %54 = load ptr, ptr %0, align 8
  %55 = getelementptr inbounds i8, ptr %54, i64 1824
  %56 = load ptr, ptr %55, align 8
  %57 = call zeroext i8 %56(ptr noundef nonnull %0) #9
  %.not39 = icmp eq i8 %57, 0
  br i1 %.not39, label %58, label %66

58:                                               ; preds = %50
  %59 = load ptr, ptr %0, align 8
  %60 = getelementptr inbounds i8, ptr %59, i64 1392
  %61 = load ptr, ptr %60, align 8
  call void %61(ptr noundef nonnull %0, ptr noundef %45, i32 noundef 1, ptr noundef %35) #9
  %62 = load ptr, ptr %0, align 8
  %63 = getelementptr inbounds i8, ptr %62, i64 1824
  %64 = load ptr, ptr %63, align 8
  %65 = call zeroext i8 %64(ptr noundef nonnull %0) #9
  %.not40 = icmp eq i8 %65, 0
  %. = select i1 %.not40, ptr %45, ptr null
  br label %66

66:                                               ; preds = %58, %50, %40, %33, %27, %17, %16
  %.0 = phi ptr [ null, %16 ], [ null, %17 ], [ null, %27 ], [ null, %33 ], [ null, %40 ], [ null, %50 ], [ %., %58 ]
  ret ptr %.0
}